; Function Attrs: mustprogress nounwind uwtable
define hidden noundef i64 @_ZNK14XMemoryManager16peek_low_addressEv(ptr noundef nonnull align 8 dereferenceable(112) %0) local_unnamed_addr #0 align 2 {
  %2 = tail call i32 @pthread_mutex_lock(ptr noundef nonnull %0) #7
  %3 = getelementptr inbounds i8, ptr %0, i64 40
  %4 = getelementptr inbounds i8, ptr %0, i64 56
  %5 = load i64, ptr %4, align 8
  %6 = icmp eq i64 %5, 0
  %7 = load ptr, ptr %3, align 8
  %8 = ptrtoint ptr %7 to i64
  %9 = add i64 %8, -16
  %.not4 = icmp eq i64 %9, 0
  %.not = select i1 %6, i1 true, i1 %.not4
  br i1 %.not, label %_ZN7XLockerI5XLockED2Ev.exit, label %10

10:                                               ; preds = %1
  %11 = inttoptr i64 %9 to ptr
  %12 = load i64, ptr %11, align 8
  br label %_ZN7XLockerI5XLockED2Ev.exit

_ZN7XLockerI5XLockED2Ev.exit:                     ; preds = %1, %10
  %.0 = phi i64 [ %12, %10 ], [ -1, %1 ]
  %13 = tail call i32 @pthread_mutex_unlock(ptr noundef nonnull %0) #7
  ret i64 %.0
}